; Function Attrs: mustprogress nounwind uwtable
define hidden void @_ZN28JfrJavaThreadIteratorAdapter13skip_excludedEv(ptr nocapture noundef nonnull align 8 dereferenceable(73) %0) local_unnamed_addr #0 align 2 {
  %2 = getelementptr inbounds i8, ptr %0, i64 56
  %3 = getelementptr inbounds i8, ptr %0, i64 64
  %.sroa.0.0.copyload.i2 = load ptr, ptr %3, align 8
  %4 = load ptr, ptr %2, align 8
  %.not3 = icmp eq ptr %4, %.sroa.0.0.copyload.i2
  br i1 %.not3, label %.critedge, label %.lr.ph

.lr.ph:                                           ; preds = %1
  %5 = getelementptr inbounds i8, ptr %0, i64 72
  br label %6

6:                                                ; preds = %.lr.ph, %_ZL31java_thread_inclusion_predicateP10JavaThreadb.exit.thread
  %7 = phi ptr [ %4, %.lr.ph ], [ %23, %_ZL31java_thread_inclusion_predicateP10JavaThreadb.exit.thread ]
  %8 = load i64, ptr @PrefetchScanIntervalInBytes, align 8
  tail call void asm sideeffect "prefetcht0 ($0,$1,1)", "r,r,~{dirflag},~{fpsr},~{flags}"(ptr %7, i64 %8) #5, !srcloc !6
  %9 = load ptr, ptr %2, align 8
  %10 = load ptr, ptr %9, align 8
  %11 = load i8, ptr %5, align 8
  %12 = trunc i8 %11 to i1
  br i1 %12, label %13, label %17

13:                                               ; preds = %6
  %14 = getelementptr inbounds i8, ptr %10, i64 1092
  %15 = load volatile i32, ptr %14, align 4
  %16 = icmp eq i32 %15, 2
  br i1 %16, label %_ZL31java_thread_inclusion_predicateP10JavaThreadb.exit.thread, label %17

17:                                               ; preds = %13, %6
  %18 = getelementptr inbounds i8, ptr %10, i64 1144
  %19 = load volatile i32, ptr %18, align 8
  %20 = icmp eq i32 %19, 2
  br i1 %20, label %_ZL31java_thread_inclusion_predicateP10JavaThreadb.exit.thread, label %_ZL31java_thread_inclusion_predicateP10JavaThreadb.exit

_ZL31java_thread_inclusion_predicateP10JavaThreadb.exit: ; preds = %17
  %21 = getelementptr i8, ptr %10, i64 778
  %.val.i = load i8, ptr %21, align 2
  %22 = trunc i8 %.val.i to i1
  br i1 %22, label %_ZL31java_thread_inclusion_predicateP10JavaThreadb.exit.thread, label %.critedge

_ZL31java_thread_inclusion_predicateP10JavaThreadb.exit.thread: ; preds = %17, %13, %_ZL31java_thread_inclusion_predicateP10JavaThreadb.exit
  %23 = getelementptr inbounds i8, ptr %9, i64 8
  store ptr %23, ptr %2, align 8
  %.sroa.0.0.copyload.i = load ptr, ptr %3, align 8
  %.not = icmp eq ptr %23, %.sroa.0.0.copyload.i
  br i1 %.not, label %.critedge, label %6, !llvm.loop !7

.critedge:                                        ; preds = %_ZL31java_thread_inclusion_predicateP10JavaThreadb.exit, %_ZL31java_thread_inclusion_predicateP10JavaThreadb.exit.thread, %1
  ret void
}